(dp0
S'6'
p1
(dp2
S'wp_author'
p3
S'Rufus Pollock'
p4
sS'userid'
p5
S'2'
p6
sS'excerpt'
p7
S''
p8
sS'wp_page_parent_id'
p9
I0
sS'mt_allow_comments'
p10
I0
sS'text_more'
p11
g8
sS'custom_fields'
p12
(lp13
(dp14
S'value'
p15
S'2'
p16
sS'id'
p17
S'7'
p18
sS'key'
p19
S'_edit_last'
p20
sa(dp21
S'value'
p22
S'1366877396:2'
p23
sS'id'
p24
S'8'
p25
sS'key'
p26
S'_edit_lock'
p27
sa(dp28
S'value'
p29
S'text'
p30
sS'id'
p31
S'16'
p32
sS'key'
p33
S'_flattr_post_category'
p34
sa(dp35
S'value'
p36
g8
sS'id'
p37
S'149'
p38
sS'key'
p39
S'_flattr_post_customurl'
p40
sa(dp41
S'value'
p42
S'0'
p43
sS'id'
p44
S'17'
p45
sS'key'
p46
S'_flattr_post_hidden'
p47
sa(dp48
S'value'
p49
S'en_GB'
p50
sS'id'
p51
S'15'
p52
sS'key'
p53
S'_flattr_post_language'
p54
sa(dp55
S'value'
p56
S'onecolumn-page.php'
p57
sS'id'
p58
S'9'
p59
sS'key'
p60
S'_wp_page_template'
p61
sasS'wp_author_id'
p62
S'2'
p63
sS'title'
p64
S'Home'
p65
sS'wp_password'
p66
g8
sS'wp_page_parent_title'
p67
g8
sS'page_id'
p68
I6
sS'wp_slug'
p69
S'6-2'
p70
sS'wp_page_order'
p71
I0
sS'permaLink'
p72
S'http://schoolofdata.org/6-2/'
p73
sS'description'
p74
S'<div class="banner full-width">\n<div class="row">\n  <div class="span4">\n    <h1>Learn to Work with Data</h1>\n    <p>Know nothing about data? We can get you started? Already a data ninja? We can still help you improve your data skills. Get started with one of our online courses now!</p>\n<a href="/handbook/courses/" class="btn btn-large btn-primary">Take a  Course Now &raquo;</a>\n  </div>\n  <div class="span8">\n    <img alt="" src="http://schoolofdata.org/files/2012/09/photos2.png">\n  </div>\n</div>\n</div>\n<div class="row pods">\n<div class="span12">[latest_posts]</div>\n</div>\n[notitle]\n[fullwidth]\n<style>\nbody > header {margin-bottom: 0px;}\ndiv#content { background-color: transparent; border: none; padding: 0px; }\n.banner.full-width, .banner.full-width:before, .banner.full-width:after {background-color: transparent; background-size: auto auto; background-repeat:no-repeat; box-shadow: 0 -5px 5px -5px rgba(0, 0, 0, 0.5) inset; margin-top: 5px;}\n.banner.full-width .row > div { padding-top:20px; }\n.banner.full-width p {font-size: 16px; color: #333333; line-height: normal; margin-bottom: 18px;}\n.banner.full-width img {display: block; text-align:center;}\n.row.pods {margin-top:20px;}\n.row.pods > .span4 > p {display:none;}\n</style>'
p75
sS'dateCreated'
p76
(ixmlrpclib
DateTime
p77
(dp78
S'value'
p79
S'20120321T10:27:26'
p80
sbsS'wp_author_display_name'
p81
S'Rufus Pollock'
p82
sS'link'
p83
S'http://schoolofdata.org/6-2/'
p84
sS'page_status'
p85
S'publish'
p86
sS'categories'
p87
(lp88
sS'wp_page_template'
p89
S'onecolumn-page.php'
p90
sS'mt_allow_pings'
p91
I0
sS'date_created_gmt'
p92
(ixmlrpclib
DateTime
p93
(dp94
g79
S'20120321T10:27:26'
p95
sbss.